; Function Attrs: mustprogress uwtable
define void @_ZN6icu_7516CollationBuilder8optimizeERKNS_10UnicodeSetERPKcR10UErrorCode(ptr noundef nonnull align 8 dereferenceable(616) %this, ptr noundef nonnull align 8 dereferenceable(200) %set, ptr nocapture nonnull readnone align 8 %0, ptr nocapture noundef nonnull readonly align 4 dereferenceable(4) %errorCode) unnamed_addr #0 align 2 {
entry:
  %1 = load i32, ptr %errorCode, align 4
  %cmp.i = icmp slt i32 %1, 1
  br i1 %cmp.i, label %if.end, label %return

if.end:                                           ; preds = %entry
  %optimizeSet = getelementptr inbounds i8, ptr %this, i64 88
  %call2 = tail call noundef nonnull align 8 dereferenceable(200) ptr @_ZN6icu_7510UnicodeSet6addAllERKS0_(ptr noundef nonnull align 8 dereferenceable(200) %optimizeSet, ptr noundef nonnull align 8 dereferenceable(200) %set)
  br label %return

return:                                           ; preds = %entry, %if.end
  ret void
}